target datalayout = "e-m:e-p270:32:32-p271:32:32-p272:64:64-i64:64-i128:128-f80:128-n8:16:32:64-S128"
target triple = "x86_64-pc-linux-gnu"

%struct._object = type { %union.anon, ptr }
%union.anon = type { i64 }
%struct.anon = type { i32, i32 }
%struct._typeobject = type { %struct.PyVarObject, ptr, i64, i64, ptr, i64, ptr, ptr, ptr, ptr, ptr, ptr, ptr, ptr, ptr, ptr, ptr, ptr, ptr, i64, ptr, ptr, ptr, ptr, i64, ptr, ptr, ptr, ptr, ptr, ptr, ptr, ptr, ptr, i64, ptr, ptr, ptr, ptr, ptr, ptr, ptr, ptr, ptr, ptr, ptr, i32, ptr, ptr, i8, i16 }
%struct.PyVarObject = type { %struct._object, i64 }

@PyExc_TypeError = external global ptr, align 8
@.str.14 = private unnamed_addr constant [24 x i8] c"invalid config type: %s\00", align 1

; Function Attrs: alwaysinline nounwind uwtable
define internal i32 @_Py_IsImmortal(ptr noundef %0) #4 {
  %2 = alloca ptr, align 8
  store ptr %0, ptr %2, align 8, !tbaa !8
  %3 = load ptr, ptr %2, align 8, !tbaa !8
  %4 = getelementptr inbounds nuw %struct._object, ptr %3, i32 0, i32 0
  %5 = getelementptr inbounds nuw %struct.anon, ptr %4, i32 0, i32 0
  %6 = load i32, ptr %5, align 8, !tbaa !20
  %7 = icmp slt i32 %6, 0
  %8 = zext i1 %7 to i32
  ret i32 %8
}

; Function Attrs: nounwind uwtable
define internal void @config_dict_invalid_type(ptr noundef %0) #0 {
  %2 = alloca ptr, align 8
  store ptr %0, ptr %2, align 8, !tbaa !119
  %3 = load ptr, ptr @PyExc_TypeError, align 8, !tbaa !8
  %4 = load ptr, ptr %2, align 8, !tbaa !119
  %5 = call ptr (ptr, ptr, ...) @PyErr_Format(ptr noundef %3, ptr noundef @.str.14, ptr noundef %4)
  ret void
}

; Function Attrs: alwaysinline nounwind uwtable
define internal void @Py_DECREF(ptr noundef %0) #4 {
  %2 = alloca ptr, align 8
  store ptr %0, ptr %2, align 8, !tbaa !8
  %3 = load ptr, ptr %2, align 8, !tbaa !8
  %4 = call i32 @_Py_IsImmortal(ptr noundef %3)
  %5 = icmp ne i32 %4, 0
  br i1 %5, label %6, label %7

6:                                                ; preds = %1
  br label %16

7:                                                ; preds = %1
  %8 = load ptr, ptr %2, align 8, !tbaa !8
  %9 = getelementptr inbounds nuw %struct._object, ptr %8, i32 0, i32 0
  %10 = getelementptr inbounds nuw %struct.anon, ptr %9, i32 0, i32 0
  %11 = load i32, ptr %10, align 8, !tbaa !20
  %12 = add i32 %11, -1
  store i32 %12, ptr %10, align 8, !tbaa !20
  %13 = icmp eq i32 %12, 0
  br i1 %13, label %14, label %16

14:                                               ; preds = %7
  %15 = load ptr, ptr %2, align 8, !tbaa !8
  call void @_Py_Dealloc(ptr noundef %15)
  br label %16

16:                                               ; preds = %6, %14, %7
  ret void
}

; Function Attrs: inlinehint nounwind uwtable
define internal i32 @PyType_HasFeature(ptr noundef %0, i64 noundef %1) #3 {
  %3 = alloca ptr, align 8
  %4 = alloca i64, align 8
  %5 = alloca i64, align 8
  store ptr %0, ptr %3, align 8, !tbaa !21
  store i64 %1, ptr %4, align 8, !tbaa !23
  call void @llvm.lifetime.start.p0(i64 8, ptr %5) #8
  %6 = load ptr, ptr %3, align 8, !tbaa !21
  %7 = getelementptr inbounds nuw %struct._typeobject, ptr %6, i32 0, i32 19
  %8 = load i64, ptr %7, align 8, !tbaa !25
  store i64 %8, ptr %5, align 8, !tbaa !23
  %9 = load i64, ptr %5, align 8, !tbaa !23
  %10 = load i64, ptr %4, align 8, !tbaa !23
  %11 = and i64 %9, %10
  %12 = icmp ne i64 %11, 0
  %13 = zext i1 %12 to i32
  call void @llvm.lifetime.end.p0(i64 8, ptr %5) #8
  ret i32 %13
}

; Function Attrs: inlinehint nounwind uwtable
define internal ptr @_Py_TYPE(ptr noundef %0) #3 {
  %2 = alloca ptr, align 8
  store ptr %0, ptr %2, align 8, !tbaa !8
  %3 = load ptr, ptr %2, align 8, !tbaa !8
  %4 = getelementptr inbounds nuw %struct._object, ptr %3, i32 0, i32 1
  %5 = load ptr, ptr %4, align 8, !tbaa !34
  ret ptr %5
}

; Function Attrs: inlinehint nounwind uwtable
define internal i32 @_config_dict_get(ptr noundef %0, ptr noundef %1, ptr noundef %2) #3 {
  %4 = alloca i32, align 4
  %5 = alloca ptr, align 8
  %6 = alloca ptr, align 8
  %7 = alloca ptr, align 8
  %8 = alloca ptr, align 8
  %9 = alloca i32, align 4
  store ptr %0, ptr %5, align 8, !tbaa !8
  store ptr %1, ptr %6, align 8, !tbaa !119
  store ptr %2, ptr %7, align 8, !tbaa !125
  call void @llvm.lifetime.start.p0(i64 8, ptr %8) #8
  %10 = load ptr, ptr %5, align 8, !tbaa !8
  %11 = load ptr, ptr %6, align 8, !tbaa !119
  %12 = call i32 @PyDict_GetItemStringRef(ptr noundef %10, ptr noundef %11, ptr noundef %8)
  %13 = icmp slt i32 %12, 0
  br i1 %13, label %14, label %15

14:                                               ; preds = %3
  store i32 -1, ptr %4, align 4
  store i32 1, ptr %9, align 4
  br label %22

15:                                               ; preds = %3
  %16 = load ptr, ptr %8, align 8, !tbaa !8
  %17 = icmp eq ptr %16, null
  br i1 %17, label %18, label %19

18:                                               ; preds = %15
  store i32 -1, ptr %4, align 4
  store i32 1, ptr %9, align 4
  br label %22

19:                                               ; preds = %15
  %20 = load ptr, ptr %8, align 8, !tbaa !8
  %21 = load ptr, ptr %7, align 8, !tbaa !125
  store ptr %20, ptr %21, align 8, !tbaa !8
  store i32 0, ptr %4, align 4
  store i32 1, ptr %9, align 4
  br label %22

22:                                               ; preds = %19, %18, %14
  call void @llvm.lifetime.end.p0(i64 8, ptr %8) #8
  %23 = load i32, ptr %4, align 4
  ret i32 %23
}

; Function Attrs: nounwind uwtable
define internal i32 @_config_dict_copy_str(ptr noundef %0, ptr noundef %1, ptr noundef %2, i64 noundef %3) #0 {
  %5 = alloca i32, align 4
  %6 = alloca ptr, align 8
  %7 = alloca ptr, align 8
  %8 = alloca ptr, align 8
  %9 = alloca i64, align 8
  %10 = alloca ptr, align 8
  %11 = alloca i32, align 4
  store ptr %0, ptr %6, align 8, !tbaa !8
  store ptr %1, ptr %7, align 8, !tbaa !119
  store ptr %2, ptr %8, align 8, !tbaa !119
  store i64 %3, ptr %9, align 8, !tbaa !23
  call void @llvm.lifetime.start.p0(i64 8, ptr %10) #8
  %12 = load ptr, ptr %6, align 8, !tbaa !8
  %13 = load ptr, ptr %7, align 8, !tbaa !119
  %14 = call i32 @_config_dict_get(ptr noundef %12, ptr noundef %13, ptr noundef %10)
  %15 = icmp slt i32 %14, 0
  br i1 %15, label %16, label %17

16:                                               ; preds = %4
  store i32 -1, ptr %5, align 4
  store i32 1, ptr %11, align 4
  br label %37

17:                                               ; preds = %4
  %18 = load ptr, ptr %10, align 8, !tbaa !8
  %19 = call ptr @_Py_TYPE(ptr noundef %18)
  %20 = call i32 @PyType_HasFeature(ptr noundef %19, i64 noundef 268435456)
  %21 = icmp ne i32 %20, 0
  br i1 %21, label %25, label %22

22:                                               ; preds = %17
  %23 = load ptr, ptr %10, align 8, !tbaa !8
  call void @Py_DECREF(ptr noundef %23)
  %24 = load ptr, ptr %7, align 8, !tbaa !119
  call void @config_dict_invalid_type(ptr noundef %24)
  store i32 -1, ptr %5, align 4
  store i32 1, ptr %11, align 4
  br label %37

25:                                               ; preds = %17
  %26 = load ptr, ptr %8, align 8, !tbaa !119
  %27 = load ptr, ptr %10, align 8, !tbaa !8
  %28 = call ptr @PyUnicode_AsUTF8(ptr noundef %27)
  %29 = load i64, ptr %9, align 8, !tbaa !23
  %30 = sub i64 %29, 1
  %31 = call ptr @strncpy(ptr noundef %26, ptr noundef %28, i64 noundef %30) #8
  %32 = load ptr, ptr %8, align 8, !tbaa !119
  %33 = load i64, ptr %9, align 8, !tbaa !23
  %34 = sub i64 %33, 1
  %35 = getelementptr i8, ptr %32, i64 %34
  store i8 0, ptr %35, align 1, !tbaa !20
  %36 = load ptr, ptr %10, align 8, !tbaa !8
  call void @Py_DECREF(ptr noundef %36)
  store i32 0, ptr %5, align 4
  store i32 1, ptr %11, align 4
  br label %37

37:                                               ; preds = %25, %22, %16
  call void @llvm.lifetime.end.p0(i64 8, ptr %10) #8
  %38 = load i32, ptr %5, align 4
  ret i32 %38
}