; Function Attrs: nounwind uwtable
define internal fastcc range(i32 -1, 1) i32 @_config_dict_copy_str(ptr noundef nonnull %0, ptr noundef nonnull %1) unnamed_addr #0 {
  %3 = alloca ptr, align 8
  call void @llvm.lifetime.start.p0(i64 8, ptr nonnull %3) #6
  %4 = call i32 @PyDict_GetItemStringRef(ptr noundef nonnull %0, ptr noundef nonnull @.str.6, ptr noundef nonnull %3) #6
  %5 = icmp slt i32 %4, 0
  br i1 %5, label %_config_dict_get.exit.thread, label %6

6:                                                ; preds = %2
  %7 = load ptr, ptr %3, align 8, !tbaa !16
  %8 = icmp eq ptr %7, null
  br i1 %8, label %_config_dict_get.exit.thread, label %9

_config_dict_get.exit.thread:                     ; preds = %2, %6
  call void @llvm.lifetime.end.p0(i64 8, ptr nonnull %3) #6
  br label %Py_DECREF.exit

9:                                                ; preds = %6
  call void @llvm.lifetime.end.p0(i64 8, ptr nonnull %3) #6
  %10 = getelementptr i8, ptr %7, i64 8
  %.val = load ptr, ptr %10, align 8, !tbaa !19
  %11 = getelementptr i8, ptr %.val, i64 168
  %.val10 = load i64, ptr %11, align 8, !tbaa !22
  %12 = and i64 %.val10, 268435456
  %.not = icmp eq i64 %12, 0
  br i1 %.not, label %13, label %21

13:                                               ; preds = %9
  %14 = load i32, ptr %7, align 8, !tbaa !9
  %.not.i7 = icmp sgt i32 %14, -1
  br i1 %.not.i7, label %15, label %Py_DECREF.exit8

15:                                               ; preds = %13
  %16 = add nsw i32 %14, -1
  store i32 %16, ptr %7, align 8, !tbaa !9
  %17 = icmp eq i32 %16, 0
  br i1 %17, label %18, label %Py_DECREF.exit8

18:                                               ; preds = %15
  call void @_Py_Dealloc(ptr noundef nonnull %7) #6
  br label %Py_DECREF.exit8

Py_DECREF.exit8:                                  ; preds = %13, %15, %18
  %19 = load ptr, ptr @PyExc_TypeError, align 8, !tbaa !16
  %20 = call ptr (ptr, ptr, ...) @PyErr_Format(ptr noundef %19, ptr noundef nonnull @.str.14, ptr noundef nonnull @.str.6) #6
  br label %Py_DECREF.exit

21:                                               ; preds = %9
  %22 = call ptr @PyUnicode_AsUTF8(ptr noundef nonnull %7) #6
  %23 = call ptr @strncpy(ptr noundef nonnull dereferenceable(1) %1, ptr noundef nonnull dereferenceable(1) %22, i64 noundef 19) #6
  %24 = getelementptr i8, ptr %1, i64 19
  store i8 0, ptr %24, align 1, !tbaa !9
  %25 = load i32, ptr %7, align 8, !tbaa !9
  %.not.i = icmp sgt i32 %25, -1
  br i1 %.not.i, label %26, label %Py_DECREF.exit

26:                                               ; preds = %21
  %27 = add nsw i32 %25, -1
  store i32 %27, ptr %7, align 8, !tbaa !9
  %28 = icmp eq i32 %27, 0
  br i1 %28, label %29, label %Py_DECREF.exit

29:                                               ; preds = %26
  call void @_Py_Dealloc(ptr noundef nonnull %7) #6
  br label %Py_DECREF.exit

Py_DECREF.exit:                                   ; preds = %29, %26, %21, %_config_dict_get.exit.thread, %Py_DECREF.exit8
  %.0 = phi i32 [ -1, %Py_DECREF.exit8 ], [ -1, %_config_dict_get.exit.thread ], [ 0, %21 ], [ 0, %26 ], [ 0, %29 ]
  ret i32 %.0
}